; Function Attrs: mustprogress uwtable
define internal noundef i32 @_ZN2cv12cpu_baselineL10normL1_32fEPKfPKhPdii(ptr noundef readonly captures(none) %0, ptr noundef readonly %1, ptr noundef captures(none) %2, i32 noundef %3, i32 noundef %4) #0 personality ptr @__gxx_personality_v0 {
  %6 = alloca %"class.cv::utils::trace::details::Region", align 8
  call void @llvm.lifetime.start.p0(i64 16, ptr nonnull %6) #17
  call void @_ZN2cv5utils5trace7details6RegionC1ERKNS3_21LocationStaticStorageE(ptr noundef nonnull align 8 dereferenceable(12) %6, ptr noundef nonnull align 8 dereferenceable(32) @_ZZN2cv12cpu_baselineL10normL1_32fEPKfPKhPdiiE25__cv_trace_location_fn647)
  %7 = load double, ptr %2, align 8, !tbaa !36
  %.not.i = icmp eq ptr %1, null
  br i1 %.not.i, label %19, label %.preheader25.i

.preheader25.i:                                   ; preds = %5
  %8 = icmp sgt i32 %3, 0
  br i1 %8, label %.lr.ph32.i, label %.loopexit

.lr.ph32.i:                                       ; preds = %.preheader25.i
  %9 = icmp sgt i32 %4, 0
  %10 = sext i32 %4 to i64
  br i1 %9, label %.lr.ph32.split.us.preheader.i, label %.loopexit

.lr.ph32.split.us.preheader.i:                    ; preds = %.lr.ph32.i
  %wide.trip.count40.i = zext nneg i32 %3 to i64
  %wide.trip.count.i = zext nneg i32 %4 to i64
  br label %.lr.ph32.split.us.i

.lr.ph32.split.us.i:                              ; preds = %..loopexit_crit_edge.us.i, %.lr.ph32.split.us.preheader.i
  %indvars.iv37.i = phi i64 [ 0, %.lr.ph32.split.us.preheader.i ], [ %indvars.iv.next38.i, %..loopexit_crit_edge.us.i ]
  %.130.us.i = phi double [ %7, %.lr.ph32.split.us.preheader.i ], [ %.3.us.i, %..loopexit_crit_edge.us.i ]
  %.02229.us.i = phi ptr [ %0, %.lr.ph32.split.us.preheader.i ], [ %18, %..loopexit_crit_edge.us.i ]
  %11 = getelementptr inbounds nuw i8, ptr %1, i64 %indvars.iv37.i
  %12 = load i8, ptr %11, align 1, !tbaa !12
  %.not24.us.i = icmp eq i8 %12, 0
  br i1 %.not24.us.i, label %..loopexit_crit_edge.us.i, label %.preheader.us.i

.preheader.us.i:                                  ; preds = %.lr.ph32.split.us.i, %.preheader.us.i
  %indvars.iv.i = phi i64 [ %indvars.iv.next.i, %.preheader.us.i ], [ 0, %.lr.ph32.split.us.i ]
  %.227.us.i = phi double [ %17, %.preheader.us.i ], [ %.130.us.i, %.lr.ph32.split.us.i ]
  %13 = getelementptr inbounds nuw float, ptr %.02229.us.i, i64 %indvars.iv.i
  %14 = load float, ptr %13, align 4, !tbaa !31
  %15 = call noundef float @llvm.fabs.f32(float %14)
  %16 = fpext float %15 to double
  %17 = fadd double %.227.us.i, %16
  %indvars.iv.next.i = add nuw nsw i64 %indvars.iv.i, 1
  %exitcond.not.i = icmp eq i64 %indvars.iv.next.i, %wide.trip.count.i
  br i1 %exitcond.not.i, label %..loopexit_crit_edge.us.i, label %.preheader.us.i, !llvm.loop !56

..loopexit_crit_edge.us.i:                        ; preds = %.preheader.us.i, %.lr.ph32.split.us.i
  %.3.us.i = phi double [ %.130.us.i, %.lr.ph32.split.us.i ], [ %17, %.preheader.us.i ]
  %indvars.iv.next38.i = add nuw nsw i64 %indvars.iv37.i, 1
  %18 = getelementptr inbounds nuw float, ptr %.02229.us.i, i64 %10
  %exitcond41.not.i = icmp eq i64 %indvars.iv.next38.i, %wide.trip.count40.i
  br i1 %exitcond41.not.i, label %.loopexit, label %.lr.ph32.split.us.i, !llvm.loop !57

19:                                               ; preds = %5
  %20 = mul nsw i32 %4, %3
  %21 = icmp sgt i32 %20, 0
  br i1 %21, label %.lr.ph.preheader.i.i, label %_ZNK2cv12cpu_baseline11NormL1_SIMDIfdEclEPKfi.exit.i

.lr.ph.preheader.i.i:                             ; preds = %19
  %wide.trip.count.i.i = zext nneg i32 %20 to i64
  br label %.lr.ph.i.i

.lr.ph.i.i:                                       ; preds = %.lr.ph.i.i, %.lr.ph.preheader.i.i
  %indvars.iv.i.i = phi i64 [ 0, %.lr.ph.preheader.i.i ], [ %indvars.iv.next.i.i, %.lr.ph.i.i ]
  %.067.i.i = phi double [ 0.000000e+00, %.lr.ph.preheader.i.i ], [ %26, %.lr.ph.i.i ]
  %22 = getelementptr inbounds nuw float, ptr %0, i64 %indvars.iv.i.i
  %23 = load float, ptr %22, align 4, !tbaa !31
  %24 = call noundef float @llvm.fabs.f32(float %23)
  %25 = fpext float %24 to double
  %26 = fadd double %.067.i.i, %25
  %indvars.iv.next.i.i = add nuw nsw i64 %indvars.iv.i.i, 1
  %exitcond.not.i.i = icmp eq i64 %indvars.iv.next.i.i, %wide.trip.count.i.i
  br i1 %exitcond.not.i.i, label %_ZNK2cv12cpu_baseline11NormL1_SIMDIfdEclEPKfi.exit.i, label %.lr.ph.i.i, !llvm.loop !58

_ZNK2cv12cpu_baseline11NormL1_SIMDIfdEclEPKfi.exit.i: ; preds = %.lr.ph.i.i, %19
  %.06.lcssa.i.i = phi double [ 0.000000e+00, %19 ], [ %26, %.lr.ph.i.i ]
  %27 = fadd double %7, %.06.lcssa.i.i
  br label %.loopexit

.loopexit:                                        ; preds = %..loopexit_crit_edge.us.i, %_ZNK2cv12cpu_baseline11NormL1_SIMDIfdEclEPKfi.exit.i, %.lr.ph32.i, %.preheader25.i
  %.021.i = phi double [ %27, %_ZNK2cv12cpu_baseline11NormL1_SIMDIfdEclEPKfi.exit.i ], [ %7, %.preheader25.i ], [ %7, %.lr.ph32.i ], [ %.3.us.i, %..loopexit_crit_edge.us.i ]
  store double %.021.i, ptr %2, align 8, !tbaa !36
  %28 = getelementptr inbounds nuw i8, ptr %6, i64 8
  %29 = load i32, ptr %28, align 8, !tbaa !7
  %.not.i6 = icmp eq i32 %29, 0
  br i1 %.not.i6, label %_ZN2cv5utils5trace7details6RegionD2Ev.exit, label %30

30:                                               ; preds = %.loopexit
  invoke void @_ZN2cv5utils5trace7details6Region7destroyEv(ptr noundef nonnull align 8 dereferenceable(12) %6)
          to label %_ZN2cv5utils5trace7details6RegionD2Ev.exit unwind label %31

31:                                               ; preds = %30
  %32 = landingpad { ptr, i32 }
          catch ptr null
  %33 = extractvalue { ptr, i32 } %32, 0
  call void @__clang_call_terminate(ptr %33) #18
  unreachable

_ZN2cv5utils5trace7details6RegionD2Ev.exit:       ; preds = %.loopexit, %30
  call void @llvm.lifetime.end.p0(i64 16, ptr nonnull %6) #17
  ret i32 0
}